; Function Attrs: nofree nounwind memory(readwrite, argmem: read, inaccessiblemem: none) uwtable
define void @phpdbg_set_color_ex(i32 noundef %0, ptr nocapture noundef readonly %1, i64 noundef %2) local_unnamed_addr #9 {
  br label %4

4:                                                ; preds = %11, %3
  %5 = phi ptr [ @.str.31, %3 ], [ %13, %11 ]
  %.012.i = phi ptr [ @colors, %3 ], [ %12, %11 ]
  %6 = getelementptr inbounds i8, ptr %.012.i, i64 8
  %7 = load i64, ptr %6, align 8
  %8 = icmp eq i64 %7, %2
  br i1 %8, label %9, label %11

9:                                                ; preds = %4
  %bcmp.i = tail call i32 @bcmp(ptr %1, ptr nonnull %5, i64 %2)
  %10 = icmp eq i32 %bcmp.i, 0
  br i1 %10, label %phpdbg_get_color.exit, label %11

11:                                               ; preds = %9, %4
  %12 = getelementptr inbounds i8, ptr %.012.i, i64 32
  %13 = load ptr, ptr %12, align 8
  %.not.i = icmp eq ptr %13, null
  br i1 %.not.i, label %phpdbg_get_color.exit, label %4

phpdbg_get_color.exit:                            ; preds = %11, %9
  %colors.sink = phi ptr [ %.012.i, %9 ], [ @colors, %11 ]
  %14 = sext i32 %0 to i64
  %15 = getelementptr inbounds %struct._zend_phpdbg_globals, ptr @phpdbg_globals, i64 0, i32 44, i64 %14
  store ptr %colors.sink, ptr %15, align 8
  ret void
}